target datalayout = "e-m:e-p270:32:32-p271:32:32-p272:64:64-i64:64-i128:128-f80:128-n8:16:32:64-S128"
target triple = "x86_64-pc-linux-gnu"

%class.anon.323 = type { ptr }
%"class.q::ematch" = type { ptr, ptr, ptr, %"class.q::eval", %"class.q::quantifier_stat_gen", %class.ptr_hashtable, %class.scoped_ptr, i32, %"class.q::queue", %class.svector.42, %class.pattern_inference_rw, %class.scoped_ptr.84, %class.scoped_ptr.84, %class.ptr_vector.85, %class.obj_map.87, %class.vector.92, %"struct.q::ematch::stats", %class.ast_fast_mark, i32, %class.ptr_vector.23, i8, %class.nat_set, %class.nat_set, i32, %class.svector.30, %class.svector.93, i8, %class.symbol, %class.ptr_vector.95, %class.svector.97, %class.ref_vector, %class.ref_vector.20, %class.defined_names, %class.nnf }
%"class.q::eval" = type { ptr, ptr, %class.ast_fast_mark, %class.ptr_vector, %class.ptr_vector, i8, %"struct.std::pair", %class.contains_vars }
%class.ptr_vector = type { %class.vector }
%class.vector = type { ptr }
%"struct.std::pair" = type { ptr, ptr }
%class.contains_vars = type { ptr }
%"class.q::quantifier_stat_gen" = type <{ ptr, ptr, %class.obj_map, %class.svector, %class.approx_nat, [4 x i8] }>
%class.obj_map = type { %class.core_hashtable }
%class.core_hashtable = type <{ ptr, i32, i32, i32, [4 x i8] }>
%class.svector = type { %class.vector.0 }
%class.vector.0 = type { ptr }
%class.approx_nat = type { i32 }
%class.ptr_hashtable = type { %class.core_hashtable.base.2, [4 x i8] }
%class.core_hashtable.base.2 = type <{ ptr, i32, i32, i32 }>
%class.scoped_ptr = type { ptr }
%"class.q::queue" = type { ptr, ptr, ptr, ptr, %"struct.q::queue::stats", %class.obj_ref, %class.obj_ref, %class.cost_parser, %class.cost_evaluator, %class.cached_var_subst, %class.svector.38, double, %class.svector.40, %class.svector.40 }
%"struct.q::queue::stats" = type { i32, i32 }
%class.obj_ref = type { ptr, ptr }
%class.cost_parser = type { %class.simple_parser, %class.arith_util, %class.ref_vector.11 }
%class.simple_parser = type { ptr, ptr, %class.map, %class.map.5, %class.ref_vector }
%class.map = type { %class.table2map }
%class.table2map = type { %class.core_hashtable.3 }
%class.core_hashtable.3 = type <{ ptr, i32, i32, i32, [4 x i8] }>
%class.map.5 = type { %class.table2map.6 }
%class.table2map.6 = type { %class.core_hashtable.7 }
%class.core_hashtable.7 = type <{ ptr, i32, i32, i32, [4 x i8] }>
%class.arith_util = type { ptr, ptr }
%class.ref_vector.11 = type { %class.ref_vector_core.12 }
%class.ref_vector_core.12 = type { %class.ref_manager_wrapper.13, %class.ptr_vector.14 }
%class.ref_manager_wrapper.13 = type { ptr }
%class.ptr_vector.14 = type { %class.vector.15 }
%class.vector.15 = type { ptr }
%class.cost_evaluator = type { ptr, %class.arith_util, i32, ptr }
%class.cached_var_subst = type { ptr, %class.var_subst, %class.ref_vector, %class.map.32, %class.region, %class.ptr_vector.36, ptr }
%class.var_subst = type { %class.beta_reducer, i8, [7 x i8] }
%class.beta_reducer = type <{ %class.rewriter_tpl, [8 x i8] }>
%class.rewriter_tpl = type { %class.rewriter_core, ptr, i32, %class.ptr_vector.9, %class.var_shifter, %class.inv_var_shifter, %class.obj_ref, %class.obj_ref.29, %class.obj_ref.29, %class.svector.30 }
%class.rewriter_core = type { ptr, ptr, i8, i8, %class.ptr_vector.16, ptr, %class.svector.18, %class.ref_vector, %class.ptr_vector.16, ptr, %class.ref_vector.20, %class.obj_hashtable, ptr, i32, %class.svector.27 }
%class.svector.18 = type { %class.vector.19 }
%class.vector.19 = type { ptr }
%class.ptr_vector.16 = type { %class.vector.17 }
%class.vector.17 = type { ptr }
%class.obj_hashtable = type { %class.core_hashtable.base.26, [4 x i8] }
%class.core_hashtable.base.26 = type <{ ptr, i32, i32, i32 }>
%class.svector.27 = type { %class.vector.28 }
%class.vector.28 = type { ptr }
%class.ptr_vector.9 = type { %class.vector.10 }
%class.vector.10 = type { ptr }
%class.var_shifter = type <{ %class.var_shifter_core, i32, i32, i32, [4 x i8] }>
%class.var_shifter_core = type { %class.rewriter_core }
%class.inv_var_shifter = type <{ %class.var_shifter_core, i32, [4 x i8] }>
%class.obj_ref.29 = type { ptr, ptr }
%class.map.32 = type { %class.table2map.33 }
%class.table2map.33 = type { %class.core_hashtable.34 }
%class.core_hashtable.34 = type <{ ptr, i32, i32, i32, [4 x i8] }>
%class.region = type { ptr, ptr, ptr, ptr, ptr }
%class.ptr_vector.36 = type { %class.vector.37 }
%class.vector.37 = type { ptr }
%class.svector.38 = type { %class.vector.39 }
%class.vector.39 = type { ptr }
%class.svector.40 = type { %class.vector.41 }
%class.vector.41 = type { ptr }
%class.svector.42 = type { %class.vector.43 }
%class.vector.43 = type { ptr }
%class.pattern_inference_rw = type { %class.rewriter_tpl.44, %class.pattern_inference_cfg }
%class.rewriter_tpl.44 = type { %class.rewriter_core, ptr, i32, %class.ptr_vector.9, %class.var_shifter, %class.inv_var_shifter, %class.obj_ref, %class.obj_ref.29, %class.obj_ref.29, %class.svector.30 }
%class.pattern_inference_cfg = type { ptr, ptr, i32, i32, %class.svector.45, %class.obj_hashtable.47, %class.smaller_pattern, i32, i32, ptr, i8, i8, i8, [5 x i8], %class.obj_map.58, %class.ref_vector.20, %class.ptr_vector.23, %class.ptr_vector.23, %class.ptr_vector.23, %"struct.pattern_inference_cfg::pattern_weight_lt", %"class.pattern_inference_cfg::collect", %"class.pattern_inference_cfg::contains_subpattern", %class.ptr_vector.73, %class.expr_pattern_match, %class.ptr_buffer.82 }
%class.svector.45 = type { %class.vector.46 }
%class.vector.46 = type { ptr }
%class.obj_hashtable.47 = type { %class.core_hashtable.base.51, [4 x i8] }
%class.core_hashtable.base.51 = type <{ ptr, i32, i32, i32 }>
%class.smaller_pattern = type { %class.ptr_vector.9, %class.svector.53, %class.obj_pair_hashtable }
%class.svector.53 = type { %class.vector.54 }
%class.vector.54 = type { ptr }
%class.obj_pair_hashtable = type { %class.core_hashtable.base.57, [4 x i8] }
%class.core_hashtable.base.57 = type <{ ptr, i32, i32, i32 }>
%class.obj_map.58 = type { %class.core_hashtable.59 }
%class.core_hashtable.59 = type <{ ptr, i32, i32, i32, [4 x i8] }>
%"struct.pattern_inference_cfg::pattern_weight_lt" = type { ptr }
%"class.pattern_inference_cfg::collect" = type { ptr, ptr, i32, i32, %class.map.63, %class.ptr_vector.69, %class.svector.71 }
%class.map.63 = type { %class.table2map.64 }
%class.table2map.64 = type { %class.core_hashtable.65 }
%class.core_hashtable.65 = type <{ ptr, i32, i32, i32, [4 x i8] }>
%class.ptr_vector.69 = type { %class.vector.70 }
%class.vector.70 = type { ptr }
%class.svector.71 = type { %class.vector.72 }
%class.vector.72 = type { ptr }
%"class.pattern_inference_cfg::contains_subpattern" = type { ptr, %class.nat_set, %class.ptr_vector.9 }
%class.ptr_vector.73 = type { %class.vector.74 }
%class.vector.74 = type { ptr }
%class.expr_pattern_match = type { ptr, %class.ref_vector.75, %class.svector.30, %class.svector.80, %class.ptr_vector.9, %class.ptr_vector.14, %class.ptr_vector.14 }
%class.ref_vector.75 = type { %class.ref_vector_core.76 }
%class.ref_vector_core.76 = type { %class.ref_manager_wrapper.77, %class.ptr_vector.78 }
%class.ref_manager_wrapper.77 = type { ptr }
%class.ptr_vector.78 = type { %class.vector.79 }
%class.vector.79 = type { ptr }
%class.svector.80 = type { %class.vector.81 }
%class.vector.81 = type { ptr }
%class.ptr_buffer.82 = type { %class.buffer.83 }
%class.buffer.83 = type { ptr, i32, i32, [128 x i8] }
%class.scoped_ptr.84 = type { ptr }
%class.ptr_vector.85 = type { %class.vector.86 }
%class.vector.86 = type { ptr }
%class.obj_map.87 = type { %class.core_hashtable.88 }
%class.core_hashtable.88 = type <{ ptr, i32, i32, i32, [4 x i8] }>
%class.vector.92 = type { ptr }
%"struct.q::ematch::stats" = type { i32, i32, i32, i32, i32 }
%class.ast_fast_mark = type { %class.ptr_buffer }
%class.ptr_buffer = type { %class.buffer }
%class.buffer = type { ptr, i32, i32, [128 x i8] }
%class.ptr_vector.23 = type { %class.vector.24 }
%class.vector.24 = type { ptr }
%class.nat_set = type { i32, %class.svector.30 }
%class.svector.30 = type { %class.vector.31 }
%class.vector.31 = type { ptr }
%class.svector.93 = type { %class.vector.94 }
%class.vector.94 = type { ptr }
%class.symbol = type { ptr }
%class.ptr_vector.95 = type { %class.vector.96 }
%class.vector.96 = type { ptr }
%class.svector.97 = type { %class.vector.98 }
%class.vector.98 = type { ptr }
%class.ref_vector = type { %class.ref_vector_core }
%class.ref_vector_core = type { %class.ref_manager_wrapper, %class.ptr_vector.9 }
%class.ref_manager_wrapper = type { ptr }
%class.ref_vector.20 = type { %class.ref_vector_core.21 }
%class.ref_vector_core.21 = type { %class.ref_manager_wrapper.22, %class.ptr_vector.23 }
%class.ref_manager_wrapper.22 = type { ptr }
%class.defined_names = type { ptr, ptr }
%class.nnf = type { ptr }

; Function Attrs: mustprogress nounwind uwtable
define linkonce_odr hidden noundef ptr @_ZNK10scoped_ptrIN1q3mamEEptEv(ptr noundef nonnull align 8 dereferenceable(8) %0) #5 comdat align 2 {
  %2 = alloca ptr, align 8
  store ptr %0, ptr %2, align 8, !tbaa !564
  %3 = load ptr, ptr %2, align 8
  %4 = getelementptr inbounds nuw %class.scoped_ptr.84, ptr %3, i32 0, i32 0
  %5 = load ptr, ptr %4, align 8, !tbaa !567
  ret ptr %5
}

; Function Attrs: inlinehint mustprogress uwtable
define internal void @"_ZZN1q6ematchC1ERN3euf6solverERNS_6solverEENK3$_1clEPNS1_5enodeE"(ptr noundef nonnull align 8 dereferenceable(8) %0, ptr noundef %1) #9 align 2 {
  %3 = alloca ptr, align 8
  %4 = alloca ptr, align 8
  store ptr %0, ptr %3, align 8, !tbaa !599
  store ptr %1, ptr %4, align 8, !tbaa !637
  %5 = load ptr, ptr %3, align 8
  %6 = getelementptr inbounds nuw %class.anon.323, ptr %5, i32 0, i32 0
  %7 = load ptr, ptr %6, align 8, !tbaa !213
  %8 = getelementptr inbounds nuw %"class.q::ematch", ptr %7, i32 0, i32 11
  %9 = call noundef ptr @_ZNK10scoped_ptrIN1q3mamEEptEv(ptr noundef nonnull align 8 dereferenceable(8) %8)
  %10 = load ptr, ptr %4, align 8, !tbaa !637
  %11 = load ptr, ptr %9, align 8, !tbaa !625
  %12 = getelementptr inbounds ptr, ptr %11, i64 3
  %13 = load ptr, ptr %12, align 8
  call void %13(ptr noundef nonnull align 8 dereferenceable(8) %9, ptr noundef %10, i1 noundef zeroext false)
  ret void
}

; Function Attrs: mustprogress nounwind uwtable
define linkonce_odr hidden noundef ptr @_ZNKSt9_Any_data9_M_accessEv(ptr noundef nonnull align 8 dereferenceable(16) %0) #5 comdat align 2 {
  %2 = alloca ptr, align 8
  store ptr %0, ptr %2, align 8, !tbaa !984
  %3 = load ptr, ptr %2, align 8
  %4 = getelementptr inbounds [16 x i8], ptr %3, i64 0, i64 0
  ret ptr %4
}

; Function Attrs: mustprogress uwtable
define internal void @"_ZSt13__invoke_implIvRZN1q6ematchC1ERN3euf6solverERNS0_6solverEE3$_1JPNS2_5enodeEEET_St14__invoke_otherOT0_DpOT1_"(ptr noundef nonnull align 8 dereferenceable(8) %0, ptr noundef nonnull align 8 dereferenceable(8) %1) #4 {
  %3 = alloca ptr, align 8
  %4 = alloca ptr, align 8
  store ptr %0, ptr %3, align 8, !tbaa !599
  store ptr %1, ptr %4, align 8, !tbaa !665
  %5 = load ptr, ptr %3, align 8, !tbaa !599
  %6 = load ptr, ptr %4, align 8, !tbaa !665
  %7 = load ptr, ptr %6, align 8, !tbaa !637
  call void @"_ZZN1q6ematchC1ERN3euf6solverERNS_6solverEENK3$_1clEPNS1_5enodeE"(ptr noundef nonnull align 8 dereferenceable(8) %5, ptr noundef %7)
  ret void
}

; Function Attrs: mustprogress nounwind uwtable
define internal noundef nonnull align 8 dereferenceable(8) ptr @"_ZNKSt9_Any_data9_M_accessIZN1q6ematchC1ERN3euf6solverERNS1_6solverEE3$_1EERKT_v"(ptr noundef nonnull align 8 dereferenceable(16) %0) #5 align 2 {
  %2 = alloca ptr, align 8
  store ptr %0, ptr %2, align 8, !tbaa !984
  %3 = load ptr, ptr %2, align 8
  %4 = call noundef ptr @_ZNKSt9_Any_data9_M_accessEv(ptr noundef nonnull align 8 dereferenceable(16) %3) #3
  ret ptr %4
}

; Function Attrs: mustprogress uwtable
define internal void @"_ZSt10__invoke_rIvRZN1q6ematchC1ERN3euf6solverERNS0_6solverEE3$_1JPNS2_5enodeEEENSt9enable_ifIX16is_invocable_r_vIT_T0_DpT1_EESC_E4typeEOSD_DpOSE_"(ptr noundef nonnull align 8 dereferenceable(8) %0, ptr noundef nonnull align 8 dereferenceable(8) %1) #4 {
  %3 = alloca ptr, align 8
  %4 = alloca ptr, align 8
  store ptr %0, ptr %3, align 8, !tbaa !599
  store ptr %1, ptr %4, align 8, !tbaa !665
  %5 = load ptr, ptr %3, align 8, !tbaa !599
  %6 = load ptr, ptr %4, align 8, !tbaa !665
  call void @"_ZSt13__invoke_implIvRZN1q6ematchC1ERN3euf6solverERNS0_6solverEE3$_1JPNS2_5enodeEEET_St14__invoke_otherOT0_DpOT1_"(ptr noundef nonnull align 8 dereferenceable(8) %5, ptr noundef nonnull align 8 dereferenceable(8) %6)
  ret void
}

; Function Attrs: mustprogress nounwind uwtable
define internal noundef ptr @"_ZNSt14_Function_base13_Base_managerIZN1q6ematchC1ERN3euf6solverERNS1_6solverEE3$_1E14_M_get_pointerERKSt9_Any_data"(ptr noundef nonnull align 8 dereferenceable(16) %0) #5 align 2 {
  %2 = alloca ptr, align 8
  %3 = alloca ptr, align 8
  store ptr %0, ptr %2, align 8, !tbaa !984
  call void @llvm.lifetime.start.p0(i64 8, ptr %3) #3
  %4 = load ptr, ptr %2, align 8, !tbaa !984
  %5 = call noundef nonnull align 8 dereferenceable(8) ptr @"_ZNKSt9_Any_data9_M_accessIZN1q6ematchC1ERN3euf6solverERNS1_6solverEE3$_1EERKT_v"(ptr noundef nonnull align 8 dereferenceable(16) %4) #3
  store ptr %5, ptr %3, align 8, !tbaa !599
  %6 = load ptr, ptr %3, align 8, !tbaa !599
  call void @llvm.lifetime.end.p0(i64 8, ptr %3) #3
  ret ptr %6
}

; Function Attrs: mustprogress uwtable
define internal void @"_ZNSt17_Function_handlerIFvPN3euf5enodeEEZN1q6ematchC1ERNS0_6solverERNS4_6solverEE3$_1E9_M_invokeERKSt9_Any_dataOS2_"(ptr noundef nonnull align 8 dereferenceable(16) %0, ptr noundef nonnull align 8 dereferenceable(8) %1) #4 align 2 {
  %3 = alloca ptr, align 8
  %4 = alloca ptr, align 8
  store ptr %0, ptr %3, align 8, !tbaa !984
  store ptr %1, ptr %4, align 8, !tbaa !665
  %5 = load ptr, ptr %3, align 8, !tbaa !984
  %6 = call noundef ptr @"_ZNSt14_Function_base13_Base_managerIZN1q6ematchC1ERN3euf6solverERNS1_6solverEE3$_1E14_M_get_pointerERKSt9_Any_data"(ptr noundef nonnull align 8 dereferenceable(16) %5) #3
  %7 = load ptr, ptr %4, align 8, !tbaa !665
  call void @"_ZSt10__invoke_rIvRZN1q6ematchC1ERN3euf6solverERNS0_6solverEE3$_1JPNS2_5enodeEEENSt9enable_ifIX16is_invocable_r_vIT_T0_DpT1_EESC_E4typeEOSD_DpOSE_"(ptr noundef nonnull align 8 dereferenceable(8) %6, ptr noundef nonnull align 8 dereferenceable(8) %7)
  ret void
}