; Function Attrs: mustprogress uwtable
define internal void @"_ZNSt17_Function_handlerIFvPN3euf5enodeEEZN1q6ematchC1ERNS0_6solverERNS4_6solverEE3$_1E9_M_invokeERKSt9_Any_dataOS2_"(ptr noundef nonnull readonly align 8 captures(none) dereferenceable(16) %0, ptr noundef nonnull readonly align 8 captures(none) dereferenceable(8) %1) #3 align 2 {
  %.val = load ptr, ptr %0, align 8, !tbaa !893
  %.val2 = load ptr, ptr %1, align 8, !tbaa !635
  %3 = getelementptr i8, ptr %.val, i64 2288
  %.val.val = load ptr, ptr %3, align 8, !tbaa !583
  %4 = load ptr, ptr %.val.val, align 8, !tbaa !584
  %5 = getelementptr inbounds nuw i8, ptr %4, i64 24
  %6 = load ptr, ptr %5, align 8
  tail call void %6(ptr noundef nonnull align 8 dereferenceable(8) %.val.val, ptr noundef %.val2, i1 noundef zeroext false)
  ret void
}